; Function Attrs: nounwind uwtable
define noundef ptr @av_refstruct_pool_alloc(i64 noundef %0, i32 noundef %1) local_unnamed_addr #0 {
  %3 = tail call noalias ptr @av_malloc(i64 noundef 152) #5
  %.not.i.i.i.i = icmp eq ptr %3, null
  br i1 %.not.i.i.i.i, label %av_refstruct_pool_alloc_ext.exit, label %4

4:                                                ; preds = %2
  store i64 1, ptr %3, align 8, !tbaa !4
  %5 = getelementptr inbounds nuw i8, ptr %3, i64 8
  store ptr null, ptr %5, align 8, !tbaa !4
  %6 = getelementptr inbounds nuw i8, ptr %3, i64 16
  store ptr @refstruct_pool_uninit, ptr %6, align 8, !tbaa !7
  %7 = getelementptr inbounds nuw i8, ptr %3, i64 24
  %8 = getelementptr inbounds nuw i8, ptr %3, i64 32
  %9 = getelementptr inbounds nuw i8, ptr %3, i64 80
  tail call void @llvm.memset.p0.i64(ptr noundef nonnull align 1 dereferenceable(72) %9, i8 0, i64 72, i1 false)
  store ptr @pool_unref, ptr %7, align 8, !tbaa !10
  store i64 %0, ptr %8, align 8, !tbaa !16
  %10 = getelementptr inbounds nuw i8, ptr %3, i64 40
  %11 = and i32 %1, 1
  %12 = getelementptr inbounds nuw i8, ptr %3, i64 84
  tail call void @llvm.memset.p0.i64(ptr noundef nonnull align 8 dereferenceable(40) %10, i8 0, i64 40, i1 false)
  store i32 %11, ptr %12, align 4, !tbaa !17
  %13 = and i32 %1, -196609
  %14 = getelementptr inbounds nuw i8, ptr %3, i64 88
  store i32 %13, ptr %14, align 8, !tbaa !20
  %15 = and i32 %1, 262144
  %.not32.i.i = icmp eq i32 %15, 0
  br i1 %.not32.i.i, label %17, label %16

16:                                               ; preds = %4
  store i32 1, ptr %12, align 4, !tbaa !17
  br label %17

17:                                               ; preds = %16, %4
  %18 = getelementptr inbounds nuw i8, ptr %3, i64 96
  store i64 1, ptr %18, align 8, !tbaa !4
  %19 = getelementptr inbounds nuw i8, ptr %3, i64 112
  %20 = tail call i32 @pthread_mutex_init(ptr noundef nonnull %19, ptr noundef null) #5
  %.not33.i.i = icmp eq i32 %20, 0
  br i1 %.not33.i.i, label %av_refstruct_pool_alloc_ext.exit, label %21

21:                                               ; preds = %17
  tail call void @av_free(ptr noundef nonnull %3) #5
  br label %av_refstruct_pool_alloc_ext.exit

av_refstruct_pool_alloc_ext.exit:                 ; preds = %2, %17, %21
  %.0.i.i = phi ptr [ null, %21 ], [ %8, %17 ], [ null, %2 ]
  ret ptr %.0.i.i
}